; Function Attrs: nounwind uwtable
define dso_local range(i32 -30, 1) i32 @archive_match_include_time(ptr noundef %0, i32 noundef %1, i64 noundef %2, i64 noundef %3) local_unnamed_addr #0 {
  %5 = tail call i32 @__archive_check_magic(ptr noundef %0, i32 noundef 212668873, i32 noundef 1, ptr noundef nonnull @.str.17) #14
  %.not14.i = icmp eq i32 %5, -30
  br i1 %.not14.i, label %set_timefilter.exit, label %6

6:                                                ; preds = %4
  %7 = and i32 %1, 64512
  %.not.i = icmp eq i32 %7, 0
  br i1 %.not.i, label %8, label %.sink.split.i

8:                                                ; preds = %6
  %9 = and i32 %1, 768
  %10 = icmp eq i32 %9, 0
  br i1 %10, label %.sink.split.i, label %11

11:                                               ; preds = %8
  %12 = and i32 %1, 236
  %.not13.i = icmp eq i32 %12, 0
  br i1 %.not13.i, label %13, label %.sink.split.i

13:                                               ; preds = %11
  %14 = and i32 %1, 19
  %15 = icmp eq i32 %14, 0
  br i1 %15, label %.sink.split.i, label %validate_time_flag.exit

.sink.split.i:                                    ; preds = %13, %11, %8, %6
  %.str.38.sink.i = phi ptr [ @.str.35, %6 ], [ @.str.36, %8 ], [ @.str.37, %11 ], [ @.str.38, %13 ]
  tail call void (ptr, i32, ptr, ...) @archive_set_error(ptr noundef %0, i32 noundef 22, ptr noundef nonnull %.str.38.sink.i) #14
  br label %set_timefilter.exit

validate_time_flag.exit:                          ; preds = %13
  %16 = and i32 %1, 256
  %.not.i11 = icmp eq i32 %16, 0
  br i1 %.not.i11, label %39, label %17

17:                                               ; preds = %validate_time_flag.exit
  %18 = and i32 %1, 1
  %.not37.i = icmp ne i32 %18, 0
  %19 = and i32 %1, 18
  %20 = icmp eq i32 %19, 16
  %or.cond.i = or i1 %.not37.i, %20
  br i1 %or.cond.i, label %21, label %28

21:                                               ; preds = %17
  %22 = getelementptr inbounds nuw i8, ptr %0, i64 240
  store i32 %1, ptr %22, align 8, !tbaa !64
  %23 = getelementptr inbounds nuw i8, ptr %0, i64 248
  store i64 %2, ptr %23, align 8, !tbaa !65
  %24 = getelementptr inbounds nuw i8, ptr %0, i64 256
  store i64 %3, ptr %24, align 8, !tbaa !66
  %25 = getelementptr inbounds nuw i8, ptr %0, i64 144
  %26 = load i32, ptr %25, align 8, !tbaa !48
  %27 = or i32 %26, 2
  store i32 %27, ptr %25, align 8, !tbaa !48
  br label %28

28:                                               ; preds = %21, %17
  %29 = and i32 %1, 2
  %.not38.i = icmp ne i32 %29, 0
  %30 = and i32 %1, 17
  %31 = icmp eq i32 %30, 16
  %or.cond44.i = or i1 %.not38.i, %31
  br i1 %or.cond44.i, label %32, label %39

32:                                               ; preds = %28
  %33 = getelementptr inbounds nuw i8, ptr %0, i64 288
  store i32 %1, ptr %33, align 8, !tbaa !67
  %34 = getelementptr inbounds nuw i8, ptr %0, i64 296
  store i64 %2, ptr %34, align 8, !tbaa !68
  %35 = getelementptr inbounds nuw i8, ptr %0, i64 304
  store i64 %3, ptr %35, align 8, !tbaa !69
  %36 = getelementptr inbounds nuw i8, ptr %0, i64 144
  %37 = load i32, ptr %36, align 8, !tbaa !48
  %38 = or i32 %37, 2
  store i32 %38, ptr %36, align 8, !tbaa !48
  br label %39

39:                                               ; preds = %32, %28, %validate_time_flag.exit
  %40 = and i32 %1, 512
  %.not39.i = icmp eq i32 %40, 0
  br i1 %.not39.i, label %set_timefilter.exit, label %41

41:                                               ; preds = %39
  %42 = and i32 %1, 1
  %.not40.i = icmp ne i32 %42, 0
  %43 = and i32 %1, 18
  %44 = icmp eq i32 %43, 16
  %or.cond46.i = or i1 %.not40.i, %44
  br i1 %or.cond46.i, label %45, label %52

45:                                               ; preds = %41
  %46 = getelementptr inbounds nuw i8, ptr %0, i64 264
  store i32 %1, ptr %46, align 8, !tbaa !58
  %47 = getelementptr inbounds nuw i8, ptr %0, i64 272
  store i64 %2, ptr %47, align 8, !tbaa !59
  %48 = getelementptr inbounds nuw i8, ptr %0, i64 280
  store i64 %3, ptr %48, align 8, !tbaa !60
  %49 = getelementptr inbounds nuw i8, ptr %0, i64 144
  %50 = load i32, ptr %49, align 8, !tbaa !48
  %51 = or i32 %50, 2
  store i32 %51, ptr %49, align 8, !tbaa !48
  br label %52

52:                                               ; preds = %45, %41
  %53 = and i32 %1, 2
  %.not41.i = icmp ne i32 %53, 0
  %54 = and i32 %1, 17
  %55 = icmp eq i32 %54, 16
  %or.cond48.i = or i1 %.not41.i, %55
  br i1 %or.cond48.i, label %56, label %set_timefilter.exit

56:                                               ; preds = %52
  %57 = getelementptr inbounds nuw i8, ptr %0, i64 312
  store i32 %1, ptr %57, align 8, !tbaa !61
  %58 = getelementptr inbounds nuw i8, ptr %0, i64 320
  store i64 %2, ptr %58, align 8, !tbaa !62
  %59 = getelementptr inbounds nuw i8, ptr %0, i64 328
  store i64 %3, ptr %59, align 8, !tbaa !63
  %60 = getelementptr inbounds nuw i8, ptr %0, i64 144
  %61 = load i32, ptr %60, align 8, !tbaa !48
  %62 = or i32 %61, 2
  store i32 %62, ptr %60, align 8, !tbaa !48
  br label %set_timefilter.exit

set_timefilter.exit:                              ; preds = %.sink.split.i, %4, %56, %52, %39
  %.0 = phi i32 [ 0, %39 ], [ 0, %52 ], [ 0, %56 ], [ -25, %.sink.split.i ], [ -30, %4 ]
  ret i32 %.0
}